; Function Attrs: nounwind uwtable
define range(i32 -1, 1) i32 @redisAppendCommandArgv(ptr noundef captures(none) %0, i32 noundef %1, ptr noundef readonly captures(none) %2, ptr noundef captures(address_is_null) %3) local_unnamed_addr #0 {
  %5 = alloca ptr, align 8
  call void @llvm.lifetime.start.p0(i64 8, ptr nonnull %5) #13
  %6 = call i64 @redisFormatSdsCommandArgv(ptr noundef nonnull %5, i32 noundef %1, ptr noundef %2, ptr noundef %3)
  %7 = icmp eq i64 %6, -1
  br i1 %7, label %8, label %12

8:                                                ; preds = %4
  %9 = getelementptr inbounds nuw i8, ptr %0, i64 8
  store i32 5, ptr %9, align 8, !tbaa !32
  %10 = getelementptr inbounds nuw i8, ptr %0, i64 12
  call void @llvm.memcpy.p0.p0.i64(ptr noundef nonnull align 4 dereferenceable(13) %10, ptr noundef nonnull align 1 dereferenceable(13) @.str.7, i64 13, i1 false)
  %11 = getelementptr inbounds nuw i8, ptr %0, i64 25
  store i8 0, ptr %11, align 1, !tbaa !22
  br label %25

12:                                               ; preds = %4
  %13 = load ptr, ptr %5, align 8, !tbaa !24
  %14 = getelementptr inbounds nuw i8, ptr %0, i64 152
  %15 = load ptr, ptr %14, align 8, !tbaa !43
  %16 = call ptr @hi_sdscatlen(ptr noundef %15, ptr noundef %13, i64 noundef %6) #13
  %17 = icmp eq ptr %16, null
  br i1 %17, label %18, label %23

18:                                               ; preds = %12
  %19 = getelementptr inbounds nuw i8, ptr %0, i64 8
  store i32 5, ptr %19, align 8, !tbaa !32
  %20 = getelementptr inbounds nuw i8, ptr %0, i64 12
  call void @llvm.memcpy.p0.p0.i64(ptr noundef nonnull align 4 dereferenceable(13) %20, ptr noundef nonnull align 1 dereferenceable(13) @.str.7, i64 13, i1 false)
  %21 = getelementptr inbounds nuw i8, ptr %0, i64 25
  store i8 0, ptr %21, align 1, !tbaa !22
  %22 = load ptr, ptr %5, align 8, !tbaa !24
  call void @hi_sdsfree(ptr noundef %22) #13
  br label %25

23:                                               ; preds = %12
  store ptr %16, ptr %14, align 8, !tbaa !43
  %24 = load ptr, ptr %5, align 8, !tbaa !24
  call void @hi_sdsfree(ptr noundef %24) #13
  br label %25

25:                                               ; preds = %23, %18, %8
  %.0 = phi i32 [ -1, %8 ], [ -1, %18 ], [ 0, %23 ]
  call void @llvm.lifetime.end.p0(i64 8, ptr nonnull %5) #13
  ret i32 %.0
}